target datalayout = "e-m:e-p270:32:32-p271:32:32-p272:64:64-i64:64-i128:128-f80:128-n8:16:32:64-S128"
target triple = "x86_64-pc-linux-gnu"

%class.inputStream = type { ptr, ptr, i32, i8, ptr, i64, i64, i64, i64, i64, i64, [240 x i8] }

; Function Attrs: mustprogress nounwind uwtable
define hidden void @_ZN11inputStream12clear_bufferEv(ptr noundef nonnull align 8 dereferenceable(320) %0) #1 align 2 {
  %2 = alloca ptr, align 8
  store ptr %0, ptr %2, align 8
  %3 = load ptr, ptr %2, align 8
  %4 = getelementptr inbounds %class.inputStream, ptr %3, i32 0, i32 9
  store i64 0, ptr %4, align 8
  %5 = getelementptr inbounds %class.inputStream, ptr %3, i32 0, i32 8
  store i64 0, ptr %5, align 8
  %6 = getelementptr inbounds %class.inputStream, ptr %3, i32 0, i32 7
  store i64 0, ptr %6, align 8
  %7 = getelementptr inbounds %class.inputStream, ptr %3, i32 0, i32 6
  store i64 0, ptr %7, align 8
  %8 = getelementptr inbounds %class.inputStream, ptr %3, i32 0, i32 3
  store i8 0, ptr %8, align 4
  ret void
}

; Function Attrs: mustprogress nounwind uwtable
define hidden void @_ZN11inputStream18set_buffer_contentEmm(ptr noundef nonnull align 8 dereferenceable(320) %0, i64 noundef %1, i64 noundef %2) #1 align 2 {
  %4 = alloca ptr, align 8
  %5 = alloca i64, align 8
  %6 = alloca i64, align 8
  %7 = alloca i64, align 8
  %8 = alloca ptr, align 8
  %9 = alloca i64, align 8
  store ptr %0, ptr %4, align 8
  store i64 %1, ptr %5, align 8
  store i64 %2, ptr %6, align 8
  %10 = load ptr, ptr %4, align 8
  %11 = load i64, ptr %5, align 8
  %12 = load i64, ptr %6, align 8
  %13 = icmp uge i64 %11, %12
  br i1 %13, label %14, label %15

14:                                               ; preds = %3
  call void @_ZN11inputStream12clear_bufferEv(ptr noundef nonnull align 8 dereferenceable(320) %10)
  br label %75

15:                                               ; preds = %3
  %16 = load i64, ptr %6, align 8
  %17 = load i64, ptr %5, align 8
  %18 = sub i64 %16, %17
  store i64 %18, ptr %7, align 8
  %19 = load i64, ptr %5, align 8
  %20 = getelementptr inbounds %class.inputStream, ptr %10, i32 0, i32 7
  store i64 %19, ptr %20, align 8
  %21 = load i64, ptr %6, align 8
  %22 = getelementptr inbounds %class.inputStream, ptr %10, i32 0, i32 6
  store i64 %21, ptr %22, align 8
  %23 = getelementptr inbounds %class.inputStream, ptr %10, i32 0, i32 4
  %24 = load ptr, ptr %23, align 8
  %25 = load i64, ptr %5, align 8
  %26 = getelementptr inbounds i8, ptr %24, i64 %25
  %27 = load i64, ptr %7, align 8
  %28 = call noundef ptr @memchr(ptr noundef %26, i32 noundef 10, i64 noundef %27) #5
  store ptr %28, ptr %8, align 8
  %29 = load ptr, ptr %8, align 8
  %30 = icmp eq ptr %29, null
  br i1 %30, label %31, label %36

31:                                               ; preds = %15
  %32 = load i64, ptr %6, align 8
  %33 = getelementptr inbounds %class.inputStream, ptr %10, i32 0, i32 8
  store i64 %32, ptr %33, align 8
  %34 = getelementptr inbounds %class.inputStream, ptr %10, i32 0, i32 9
  store i64 %32, ptr %34, align 8
  %35 = getelementptr inbounds %class.inputStream, ptr %10, i32 0, i32 3
  store i8 0, ptr %35, align 4
  br label %75

36:                                               ; preds = %15
  %37 = load ptr, ptr %8, align 8
  store i8 0, ptr %37, align 1
  %38 = getelementptr inbounds %class.inputStream, ptr %10, i32 0, i32 10
  %39 = load i64, ptr %38, align 8
  %40 = add i64 %39, 1
  store i64 %40, ptr %38, align 8
  %41 = load ptr, ptr %8, align 8
  %42 = getelementptr inbounds %class.inputStream, ptr %10, i32 0, i32 4
  %43 = load ptr, ptr %42, align 8
  %44 = getelementptr inbounds i8, ptr %43, i64 0
  %45 = ptrtoint ptr %41 to i64
  %46 = ptrtoint ptr %44 to i64
  %47 = sub i64 %45, %46
  store i64 %47, ptr %9, align 8
  %48 = load i64, ptr %9, align 8
  %49 = add i64 %48, 1
  %50 = getelementptr inbounds %class.inputStream, ptr %10, i32 0, i32 9
  store i64 %49, ptr %50, align 8
  %51 = load i64, ptr %9, align 8
  %52 = load i64, ptr %5, align 8
  %53 = icmp ugt i64 %51, %52
  br i1 %53, label %54, label %65

54:                                               ; preds = %36
  %55 = load ptr, ptr %8, align 8
  %56 = getelementptr inbounds i8, ptr %55, i64 -1
  %57 = load i8, ptr %56, align 1
  %58 = sext i8 %57 to i32
  %59 = icmp eq i32 %58, 13
  br i1 %59, label %60, label %65

60:                                               ; preds = %54
  %61 = load ptr, ptr %8, align 8
  %62 = getelementptr inbounds i8, ptr %61, i64 -1
  store i8 0, ptr %62, align 1
  %63 = load i64, ptr %9, align 8
  %64 = add i64 %63, -1
  store i64 %64, ptr %9, align 8
  br label %65

65:                                               ; preds = %60, %54, %36
  %66 = load i64, ptr %9, align 8
  %67 = getelementptr inbounds %class.inputStream, ptr %10, i32 0, i32 8
  store i64 %66, ptr %67, align 8
  %68 = getelementptr inbounds %class.inputStream, ptr %10, i32 0, i32 9
  %69 = load i64, ptr %68, align 8
  %70 = load i64, ptr %9, align 8
  %71 = sub i64 %69, %70
  %72 = trunc i64 %71 to i32
  %73 = trunc i32 %72 to i8
  %74 = getelementptr inbounds %class.inputStream, ptr %10, i32 0, i32 3
  store i8 %73, ptr %74, align 4
  br label %75

75:                                               ; preds = %65, %31, %14
  ret void
}