; Function Attrs: mustprogress nofree nounwind willreturn memory(readwrite, inaccessiblemem: none) uwtable
define hidden void @_ZN11inputStream18set_buffer_contentEmm(ptr nocapture noundef nonnull align 8 dereferenceable(320) %0, i64 noundef %1, i64 noundef %2) local_unnamed_addr #1 align 2 {
  %.not = icmp ult i64 %1, %2
  br i1 %.not, label %7, label %4

4:                                                ; preds = %3
  %5 = getelementptr inbounds i8, ptr %0, i64 40
  %6 = getelementptr inbounds i8, ptr %0, i64 20
  store i8 0, ptr %6, align 4
  tail call void @llvm.memset.p0.i64(ptr noundef nonnull align 8 dereferenceable(32) %5, i8 0, i64 32, i1 false)
  br label %43

7:                                                ; preds = %3
  %8 = sub i64 %2, %1
  %9 = getelementptr inbounds i8, ptr %0, i64 48
  store i64 %1, ptr %9, align 8
  %10 = getelementptr inbounds i8, ptr %0, i64 40
  store i64 %2, ptr %10, align 8
  %11 = getelementptr inbounds i8, ptr %0, i64 24
  %12 = load ptr, ptr %11, align 8
  %13 = getelementptr inbounds i8, ptr %12, i64 %1
  %14 = tail call noundef ptr @memchr(ptr noundef %13, i32 noundef 10, i64 noundef %8) #9
  %15 = icmp eq ptr %14, null
  br i1 %15, label %16, label %20

16:                                               ; preds = %7
  %17 = getelementptr inbounds i8, ptr %0, i64 56
  store i64 %2, ptr %17, align 8
  %18 = getelementptr inbounds i8, ptr %0, i64 64
  store i64 %2, ptr %18, align 8
  %19 = getelementptr inbounds i8, ptr %0, i64 20
  store i8 0, ptr %19, align 4
  br label %43

20:                                               ; preds = %7
  store i8 0, ptr %14, align 1
  %21 = getelementptr inbounds i8, ptr %0, i64 72
  %22 = load i64, ptr %21, align 8
  %23 = add i64 %22, 1
  store i64 %23, ptr %21, align 8
  %24 = load ptr, ptr %11, align 8
  %25 = ptrtoint ptr %14 to i64
  %26 = ptrtoint ptr %24 to i64
  %27 = sub i64 %25, %26
  %28 = add i64 %27, 1
  %29 = getelementptr inbounds i8, ptr %0, i64 64
  store i64 %28, ptr %29, align 8
  %30 = icmp ugt i64 %27, %1
  br i1 %30, label %31, label %37

31:                                               ; preds = %20
  %32 = getelementptr inbounds i8, ptr %14, i64 -1
  %33 = load i8, ptr %32, align 1
  %34 = icmp eq i8 %33, 13
  br i1 %34, label %35, label %37

35:                                               ; preds = %31
  store i8 0, ptr %32, align 1
  %36 = add i64 %27, -1
  %.pre = load i64, ptr %29, align 8
  br label %37

37:                                               ; preds = %35, %31, %20
  %38 = phi i64 [ %.pre, %35 ], [ %28, %31 ], [ %28, %20 ]
  %.0 = phi i64 [ %36, %35 ], [ %27, %31 ], [ %27, %20 ]
  %39 = getelementptr inbounds i8, ptr %0, i64 56
  store i64 %.0, ptr %39, align 8
  %40 = sub i64 %38, %.0
  %41 = trunc i64 %40 to i8
  %42 = getelementptr inbounds i8, ptr %0, i64 20
  store i8 %41, ptr %42, align 4
  br label %43

43:                                               ; preds = %37, %16, %4
  ret void
}